   1              	 .syntax unified
   2              	 .cpu cortex-m4
   3              	 .eabi_attribute 27,3
   4              	 .fpu fpv4-sp-d16
   5              	 .eabi_attribute 20,1
   6              	 .eabi_attribute 21,1
   7              	 .eabi_attribute 23,3
   8              	 .eabi_attribute 24,1
   9              	 .eabi_attribute 25,1
  10              	 .eabi_attribute 26,1
  11              	 .eabi_attribute 30,6
  12              	 .eabi_attribute 34,1
  13              	 .eabi_attribute 18,4
  14              	 .thumb
  15              	 .file "TDA.c"
  16              	 .text
  17              	.Ltext0:
  18              	 .cfi_sections .debug_frame
  19              	 .section .text.XMC_GPIO_SetOutputHigh,"ax",%progbits
  20              	 .align 2
  21              	 .thumb
  22              	 .thumb_func
  24              	XMC_GPIO_SetOutputHigh:
  25              	.LFB130:
  26              	 .file 1 "D:\\Bachelorarbeit\\Dave\\Basisstation\\Basisstation\\Libraries\\XMCLib\\inc/xmc_gpio.h"
   1:D:\Bachelorarbeit\Dave\Basisstation\Basisstation\Libraries\XMCLib\inc\xmc_gpio.h **** /**
   2:D:\Bachelorarbeit\Dave\Basisstation\Basisstation\Libraries\XMCLib\inc\xmc_gpio.h ****  * @file xmc_gpio.h
   3:D:\Bachelorarbeit\Dave\Basisstation\Basisstation\Libraries\XMCLib\inc\xmc_gpio.h ****  * @date 2015-06-20
   4:D:\Bachelorarbeit\Dave\Basisstation\Basisstation\Libraries\XMCLib\inc\xmc_gpio.h ****  *
   5:D:\Bachelorarbeit\Dave\Basisstation\Basisstation\Libraries\XMCLib\inc\xmc_gpio.h ****  * @cond
   6:D:\Bachelorarbeit\Dave\Basisstation\Basisstation\Libraries\XMCLib\inc\xmc_gpio.h ****   *************************************************************************************************
   7:D:\Bachelorarbeit\Dave\Basisstation\Basisstation\Libraries\XMCLib\inc\xmc_gpio.h ****  * XMClib v2.1.6 - XMC Peripheral Driver Library 
   8:D:\Bachelorarbeit\Dave\Basisstation\Basisstation\Libraries\XMCLib\inc\xmc_gpio.h ****  *
   9:D:\Bachelorarbeit\Dave\Basisstation\Basisstation\Libraries\XMCLib\inc\xmc_gpio.h ****  * Copyright (c) 2015-2016, Infineon Technologies AG
  10:D:\Bachelorarbeit\Dave\Basisstation\Basisstation\Libraries\XMCLib\inc\xmc_gpio.h ****  * All rights reserved.                        
  11:D:\Bachelorarbeit\Dave\Basisstation\Basisstation\Libraries\XMCLib\inc\xmc_gpio.h ****  *                                             
  12:D:\Bachelorarbeit\Dave\Basisstation\Basisstation\Libraries\XMCLib\inc\xmc_gpio.h ****  * Redistribution and use in source and binary forms, with or without modification,are permitted pr
  13:D:\Bachelorarbeit\Dave\Basisstation\Basisstation\Libraries\XMCLib\inc\xmc_gpio.h ****  * following conditions are met:   
  14:D:\Bachelorarbeit\Dave\Basisstation\Basisstation\Libraries\XMCLib\inc\xmc_gpio.h ****  *                                                                              
  15:D:\Bachelorarbeit\Dave\Basisstation\Basisstation\Libraries\XMCLib\inc\xmc_gpio.h ****  * Redistributions of source code must retain the above copyright notice, this list of conditions a
  16:D:\Bachelorarbeit\Dave\Basisstation\Basisstation\Libraries\XMCLib\inc\xmc_gpio.h ****  * disclaimer.                        
  17:D:\Bachelorarbeit\Dave\Basisstation\Basisstation\Libraries\XMCLib\inc\xmc_gpio.h ****  * 
  18:D:\Bachelorarbeit\Dave\Basisstation\Basisstation\Libraries\XMCLib\inc\xmc_gpio.h ****  * Redistributions in binary form must reproduce the above copyright notice, this list of condition
  19:D:\Bachelorarbeit\Dave\Basisstation\Basisstation\Libraries\XMCLib\inc\xmc_gpio.h ****  * disclaimer in the documentation and/or other materials provided with the distribution.          
  20:D:\Bachelorarbeit\Dave\Basisstation\Basisstation\Libraries\XMCLib\inc\xmc_gpio.h ****  * 
  21:D:\Bachelorarbeit\Dave\Basisstation\Basisstation\Libraries\XMCLib\inc\xmc_gpio.h ****  * Neither the name of the copyright holders nor the names of its contributors may be used to endor
  22:D:\Bachelorarbeit\Dave\Basisstation\Basisstation\Libraries\XMCLib\inc\xmc_gpio.h ****  * products derived from this software without specific prior written permission.                  
  23:D:\Bachelorarbeit\Dave\Basisstation\Basisstation\Libraries\XMCLib\inc\xmc_gpio.h ****  *                                                                              
  24:D:\Bachelorarbeit\Dave\Basisstation\Basisstation\Libraries\XMCLib\inc\xmc_gpio.h ****  * THIS SOFTWARE IS PROVIDED BY THE COPYRIGHT HOLDERS AND CONTRIBUTORS "AS IS" AND ANY EXPRESS OR I
  25:D:\Bachelorarbeit\Dave\Basisstation\Basisstation\Libraries\XMCLib\inc\xmc_gpio.h ****  * INCLUDING, BUT NOT LIMITED TO, THE IMPLIED WARRANTIES OF MERCHANTABILITY AND FITNESS FOR A PARTI
  26:D:\Bachelorarbeit\Dave\Basisstation\Basisstation\Libraries\XMCLib\inc\xmc_gpio.h ****  * DISCLAIMED. IN NO EVENT SHALL THE COPYRIGHT HOLDER OR CONTRIBUTORS BE LIABLE  FOR ANY DIRECT, IN
  27:D:\Bachelorarbeit\Dave\Basisstation\Basisstation\Libraries\XMCLib\inc\xmc_gpio.h ****  * SPECIAL, EXEMPLARY, OR CONSEQUENTIAL DAMAGES (INCLUDING, BUT NOT LIMITED TO, PROCUREMENT OF SUBS
  28:D:\Bachelorarbeit\Dave\Basisstation\Basisstation\Libraries\XMCLib\inc\xmc_gpio.h ****  * SERVICES; LOSS OF USE, DATA, OR PROFITS; OR BUSINESS INTERRUPTION) HOWEVER CAUSED AND ON ANY THE
  29:D:\Bachelorarbeit\Dave\Basisstation\Basisstation\Libraries\XMCLib\inc\xmc_gpio.h ****  * WHETHER IN CONTRACT, STRICT LIABILITY,OR TORT (INCLUDING NEGLIGENCE OR OTHERWISE) ARISING IN ANY
  30:D:\Bachelorarbeit\Dave\Basisstation\Basisstation\Libraries\XMCLib\inc\xmc_gpio.h ****  * OF THIS SOFTWARE, EVEN IF ADVISED OF THE POSSIBILITY OF SUCH DAMAGE.                            
  31:D:\Bachelorarbeit\Dave\Basisstation\Basisstation\Libraries\XMCLib\inc\xmc_gpio.h ****  *                                                                              
  32:D:\Bachelorarbeit\Dave\Basisstation\Basisstation\Libraries\XMCLib\inc\xmc_gpio.h ****  * To improve the quality of the software, users are encouraged to share modifications, enhancement
  33:D:\Bachelorarbeit\Dave\Basisstation\Basisstation\Libraries\XMCLib\inc\xmc_gpio.h ****  * Infineon Technologies AG dave@infineon.com).                                                    
  34:D:\Bachelorarbeit\Dave\Basisstation\Basisstation\Libraries\XMCLib\inc\xmc_gpio.h ****  **************************************************************************************************
  35:D:\Bachelorarbeit\Dave\Basisstation\Basisstation\Libraries\XMCLib\inc\xmc_gpio.h ****  *
  36:D:\Bachelorarbeit\Dave\Basisstation\Basisstation\Libraries\XMCLib\inc\xmc_gpio.h ****  * Change History
  37:D:\Bachelorarbeit\Dave\Basisstation\Basisstation\Libraries\XMCLib\inc\xmc_gpio.h ****  * --------------
  38:D:\Bachelorarbeit\Dave\Basisstation\Basisstation\Libraries\XMCLib\inc\xmc_gpio.h ****  *
  39:D:\Bachelorarbeit\Dave\Basisstation\Basisstation\Libraries\XMCLib\inc\xmc_gpio.h ****  * 2015-02-20:
  40:D:\Bachelorarbeit\Dave\Basisstation\Basisstation\Libraries\XMCLib\inc\xmc_gpio.h ****  *     - Initial draft<br>
  41:D:\Bachelorarbeit\Dave\Basisstation\Basisstation\Libraries\XMCLib\inc\xmc_gpio.h ****  *     - Documentation improved <br>
  42:D:\Bachelorarbeit\Dave\Basisstation\Basisstation\Libraries\XMCLib\inc\xmc_gpio.h ****  *      
  43:D:\Bachelorarbeit\Dave\Basisstation\Basisstation\Libraries\XMCLib\inc\xmc_gpio.h ****  * 2015-06-20:
  44:D:\Bachelorarbeit\Dave\Basisstation\Basisstation\Libraries\XMCLib\inc\xmc_gpio.h ****  *     - Removed version macros and declaration of GetDriverVersion API
  45:D:\Bachelorarbeit\Dave\Basisstation\Basisstation\Libraries\XMCLib\inc\xmc_gpio.h ****  *
  46:D:\Bachelorarbeit\Dave\Basisstation\Basisstation\Libraries\XMCLib\inc\xmc_gpio.h ****  * @endcond
  47:D:\Bachelorarbeit\Dave\Basisstation\Basisstation\Libraries\XMCLib\inc\xmc_gpio.h ****  *
  48:D:\Bachelorarbeit\Dave\Basisstation\Basisstation\Libraries\XMCLib\inc\xmc_gpio.h ****  */
  49:D:\Bachelorarbeit\Dave\Basisstation\Basisstation\Libraries\XMCLib\inc\xmc_gpio.h **** 
  50:D:\Bachelorarbeit\Dave\Basisstation\Basisstation\Libraries\XMCLib\inc\xmc_gpio.h **** #ifndef XMC_GPIO_H
  51:D:\Bachelorarbeit\Dave\Basisstation\Basisstation\Libraries\XMCLib\inc\xmc_gpio.h **** #define XMC_GPIO_H
  52:D:\Bachelorarbeit\Dave\Basisstation\Basisstation\Libraries\XMCLib\inc\xmc_gpio.h **** 
  53:D:\Bachelorarbeit\Dave\Basisstation\Basisstation\Libraries\XMCLib\inc\xmc_gpio.h **** /**************************************************************************************************
  54:D:\Bachelorarbeit\Dave\Basisstation\Basisstation\Libraries\XMCLib\inc\xmc_gpio.h ****  * HEADER FILES
  55:D:\Bachelorarbeit\Dave\Basisstation\Basisstation\Libraries\XMCLib\inc\xmc_gpio.h ****  **************************************************************************************************
  56:D:\Bachelorarbeit\Dave\Basisstation\Basisstation\Libraries\XMCLib\inc\xmc_gpio.h **** 
  57:D:\Bachelorarbeit\Dave\Basisstation\Basisstation\Libraries\XMCLib\inc\xmc_gpio.h **** #include "xmc_common.h"
  58:D:\Bachelorarbeit\Dave\Basisstation\Basisstation\Libraries\XMCLib\inc\xmc_gpio.h **** 
  59:D:\Bachelorarbeit\Dave\Basisstation\Basisstation\Libraries\XMCLib\inc\xmc_gpio.h **** /**
  60:D:\Bachelorarbeit\Dave\Basisstation\Basisstation\Libraries\XMCLib\inc\xmc_gpio.h ****  * @addtogroup XMClib XMC Peripheral Library
  61:D:\Bachelorarbeit\Dave\Basisstation\Basisstation\Libraries\XMCLib\inc\xmc_gpio.h ****  * @{
  62:D:\Bachelorarbeit\Dave\Basisstation\Basisstation\Libraries\XMCLib\inc\xmc_gpio.h ****  */
  63:D:\Bachelorarbeit\Dave\Basisstation\Basisstation\Libraries\XMCLib\inc\xmc_gpio.h **** 
  64:D:\Bachelorarbeit\Dave\Basisstation\Basisstation\Libraries\XMCLib\inc\xmc_gpio.h **** /**
  65:D:\Bachelorarbeit\Dave\Basisstation\Basisstation\Libraries\XMCLib\inc\xmc_gpio.h ****  * @addtogroup GPIO
  66:D:\Bachelorarbeit\Dave\Basisstation\Basisstation\Libraries\XMCLib\inc\xmc_gpio.h ****  * @brief General Purpose Input Output (GPIO) driver for the XMC microcontroller family.
  67:D:\Bachelorarbeit\Dave\Basisstation\Basisstation\Libraries\XMCLib\inc\xmc_gpio.h ****  *
  68:D:\Bachelorarbeit\Dave\Basisstation\Basisstation\Libraries\XMCLib\inc\xmc_gpio.h ****  * GPIO driver provide a generic and very flexible software interface for all standard digital I/O 
  69:D:\Bachelorarbeit\Dave\Basisstation\Basisstation\Libraries\XMCLib\inc\xmc_gpio.h ****  * Each port slice has individual interfaces for the operation as General Purpose I/O and it furthe
  70:D:\Bachelorarbeit\Dave\Basisstation\Basisstation\Libraries\XMCLib\inc\xmc_gpio.h ****  * connectivity to the on-chip periphery and the control for the pad characteristics. 
  71:D:\Bachelorarbeit\Dave\Basisstation\Basisstation\Libraries\XMCLib\inc\xmc_gpio.h ****  *
  72:D:\Bachelorarbeit\Dave\Basisstation\Basisstation\Libraries\XMCLib\inc\xmc_gpio.h ****  * The driver is divided into Input and Output mode.
  73:D:\Bachelorarbeit\Dave\Basisstation\Basisstation\Libraries\XMCLib\inc\xmc_gpio.h ****  *
  74:D:\Bachelorarbeit\Dave\Basisstation\Basisstation\Libraries\XMCLib\inc\xmc_gpio.h ****  * Input mode features:
  75:D:\Bachelorarbeit\Dave\Basisstation\Basisstation\Libraries\XMCLib\inc\xmc_gpio.h ****  * -# Configuration structure XMC_GPIO_CONFIG_t and initialization function XMC_GPIO_Init()
  76:D:\Bachelorarbeit\Dave\Basisstation\Basisstation\Libraries\XMCLib\inc\xmc_gpio.h ****  * -# Allows the selection of weak pull-up or pull-down device. Configuration structure XMC_GPIO_MO
  77:D:\Bachelorarbeit\Dave\Basisstation\Basisstation\Libraries\XMCLib\inc\xmc_gpio.h ****  * \if XMC1
  78:D:\Bachelorarbeit\Dave\Basisstation\Basisstation\Libraries\XMCLib\inc\xmc_gpio.h ****  * -# Allows the selection of input hysteresis. XMC_GPIO_SetInputHysteresis()
  79:D:\Bachelorarbeit\Dave\Basisstation\Basisstation\Libraries\XMCLib\inc\xmc_gpio.h ****  * \endif
  80:D:\Bachelorarbeit\Dave\Basisstation\Basisstation\Libraries\XMCLib\inc\xmc_gpio.h ****  *
  81:D:\Bachelorarbeit\Dave\Basisstation\Basisstation\Libraries\XMCLib\inc\xmc_gpio.h ****  * 
  82:D:\Bachelorarbeit\Dave\Basisstation\Basisstation\Libraries\XMCLib\inc\xmc_gpio.h ****  * Output mode features:
  83:D:\Bachelorarbeit\Dave\Basisstation\Basisstation\Libraries\XMCLib\inc\xmc_gpio.h ****  * -# Allows the selection of push pull/open drain and Alternate output. Configuration structure XM
  84:D:\Bachelorarbeit\Dave\Basisstation\Basisstation\Libraries\XMCLib\inc\xmc_gpio.h ****  * \if XMC4
  85:D:\Bachelorarbeit\Dave\Basisstation\Basisstation\Libraries\XMCLib\inc\xmc_gpio.h ****  * -# Allows the selection of pad driver strength. Configuration structure XMC_GPIO_OUTPUT_STRENGTH
  86:D:\Bachelorarbeit\Dave\Basisstation\Basisstation\Libraries\XMCLib\inc\xmc_gpio.h ****  * \endif
  87:D:\Bachelorarbeit\Dave\Basisstation\Basisstation\Libraries\XMCLib\inc\xmc_gpio.h ****  *
  88:D:\Bachelorarbeit\Dave\Basisstation\Basisstation\Libraries\XMCLib\inc\xmc_gpio.h ****  * -# Allows the selection of initial output level. Configuration structure XMC_GPIO_OUTPUT_LEVEL_t
  89:D:\Bachelorarbeit\Dave\Basisstation\Basisstation\Libraries\XMCLib\inc\xmc_gpio.h ****  *
  90:D:\Bachelorarbeit\Dave\Basisstation\Basisstation\Libraries\XMCLib\inc\xmc_gpio.h ****  *@{
  91:D:\Bachelorarbeit\Dave\Basisstation\Basisstation\Libraries\XMCLib\inc\xmc_gpio.h ****  */
  92:D:\Bachelorarbeit\Dave\Basisstation\Basisstation\Libraries\XMCLib\inc\xmc_gpio.h ****  
  93:D:\Bachelorarbeit\Dave\Basisstation\Basisstation\Libraries\XMCLib\inc\xmc_gpio.h **** /**************************************************************************************************
  94:D:\Bachelorarbeit\Dave\Basisstation\Basisstation\Libraries\XMCLib\inc\xmc_gpio.h ****  * MACROS
  95:D:\Bachelorarbeit\Dave\Basisstation\Basisstation\Libraries\XMCLib\inc\xmc_gpio.h ****  **************************************************************************************************
  96:D:\Bachelorarbeit\Dave\Basisstation\Basisstation\Libraries\XMCLib\inc\xmc_gpio.h **** 
  97:D:\Bachelorarbeit\Dave\Basisstation\Basisstation\Libraries\XMCLib\inc\xmc_gpio.h **** #define PORT_IOCR_PC_Pos PORT0_IOCR0_PC0_Pos
  98:D:\Bachelorarbeit\Dave\Basisstation\Basisstation\Libraries\XMCLib\inc\xmc_gpio.h **** #define PORT_IOCR_PC_Msk PORT0_IOCR0_PC0_Msk
  99:D:\Bachelorarbeit\Dave\Basisstation\Basisstation\Libraries\XMCLib\inc\xmc_gpio.h **** 
 100:D:\Bachelorarbeit\Dave\Basisstation\Basisstation\Libraries\XMCLib\inc\xmc_gpio.h **** #define PORT_IOCR_PC_Size 				(8U)
 101:D:\Bachelorarbeit\Dave\Basisstation\Basisstation\Libraries\XMCLib\inc\xmc_gpio.h **** 											
 102:D:\Bachelorarbeit\Dave\Basisstation\Basisstation\Libraries\XMCLib\inc\xmc_gpio.h **** 
 103:D:\Bachelorarbeit\Dave\Basisstation\Basisstation\Libraries\XMCLib\inc\xmc_gpio.h **** #define XMC_GPIO_CHECK_OUTPUT_LEVEL(level) ((level == XMC_GPIO_OUTPUT_LEVEL_LOW) || \
 104:D:\Bachelorarbeit\Dave\Basisstation\Basisstation\Libraries\XMCLib\inc\xmc_gpio.h ****                                             (level == XMC_GPIO_OUTPUT_LEVEL_HIGH))
 105:D:\Bachelorarbeit\Dave\Basisstation\Basisstation\Libraries\XMCLib\inc\xmc_gpio.h ****                                             
 106:D:\Bachelorarbeit\Dave\Basisstation\Basisstation\Libraries\XMCLib\inc\xmc_gpio.h **** #define XMC_GPIO_CHECK_HWCTRL(hwctrl) ((hwctrl == XMC_GPIO_HWCTRL_DISABLED) || \
 107:D:\Bachelorarbeit\Dave\Basisstation\Basisstation\Libraries\XMCLib\inc\xmc_gpio.h ****                                        (hwctrl == XMC_GPIO_HWCTRL_PERIPHERAL1) || \
 108:D:\Bachelorarbeit\Dave\Basisstation\Basisstation\Libraries\XMCLib\inc\xmc_gpio.h ****                                        (hwctrl == XMC_GPIO_HWCTRL_PERIPHERAL2))                    
 109:D:\Bachelorarbeit\Dave\Basisstation\Basisstation\Libraries\XMCLib\inc\xmc_gpio.h ****                                             
 110:D:\Bachelorarbeit\Dave\Basisstation\Basisstation\Libraries\XMCLib\inc\xmc_gpio.h **** /**************************************************************************************************
 111:D:\Bachelorarbeit\Dave\Basisstation\Basisstation\Libraries\XMCLib\inc\xmc_gpio.h ****  * ENUMS
 112:D:\Bachelorarbeit\Dave\Basisstation\Basisstation\Libraries\XMCLib\inc\xmc_gpio.h ****  **************************************************************************************************
 113:D:\Bachelorarbeit\Dave\Basisstation\Basisstation\Libraries\XMCLib\inc\xmc_gpio.h **** 
 114:D:\Bachelorarbeit\Dave\Basisstation\Basisstation\Libraries\XMCLib\inc\xmc_gpio.h **** 
 115:D:\Bachelorarbeit\Dave\Basisstation\Basisstation\Libraries\XMCLib\inc\xmc_gpio.h **** /**
 116:D:\Bachelorarbeit\Dave\Basisstation\Basisstation\Libraries\XMCLib\inc\xmc_gpio.h ****  * Defines output level of a pin. Use type \a XMC_GPIO_OUTPUT_LEVEL_t for this enum.
 117:D:\Bachelorarbeit\Dave\Basisstation\Basisstation\Libraries\XMCLib\inc\xmc_gpio.h ****  */
 118:D:\Bachelorarbeit\Dave\Basisstation\Basisstation\Libraries\XMCLib\inc\xmc_gpio.h **** typedef enum XMC_GPIO_OUTPUT_LEVEL
 119:D:\Bachelorarbeit\Dave\Basisstation\Basisstation\Libraries\XMCLib\inc\xmc_gpio.h **** {
 120:D:\Bachelorarbeit\Dave\Basisstation\Basisstation\Libraries\XMCLib\inc\xmc_gpio.h ****   XMC_GPIO_OUTPUT_LEVEL_LOW  = 0x10000U, /**<  Reset bit */
 121:D:\Bachelorarbeit\Dave\Basisstation\Basisstation\Libraries\XMCLib\inc\xmc_gpio.h ****   XMC_GPIO_OUTPUT_LEVEL_HIGH = 0x1U, 	/**< Set bit  */
 122:D:\Bachelorarbeit\Dave\Basisstation\Basisstation\Libraries\XMCLib\inc\xmc_gpio.h **** } XMC_GPIO_OUTPUT_LEVEL_t;
 123:D:\Bachelorarbeit\Dave\Basisstation\Basisstation\Libraries\XMCLib\inc\xmc_gpio.h **** 
 124:D:\Bachelorarbeit\Dave\Basisstation\Basisstation\Libraries\XMCLib\inc\xmc_gpio.h **** /**
 125:D:\Bachelorarbeit\Dave\Basisstation\Basisstation\Libraries\XMCLib\inc\xmc_gpio.h ****  * Defines direct hardware control characteristics of the pin . Use type \a XMC_GPIO_HWCTRL_t for t
 126:D:\Bachelorarbeit\Dave\Basisstation\Basisstation\Libraries\XMCLib\inc\xmc_gpio.h ****  */
 127:D:\Bachelorarbeit\Dave\Basisstation\Basisstation\Libraries\XMCLib\inc\xmc_gpio.h **** typedef enum XMC_GPIO_HWCTRL
 128:D:\Bachelorarbeit\Dave\Basisstation\Basisstation\Libraries\XMCLib\inc\xmc_gpio.h **** {
 129:D:\Bachelorarbeit\Dave\Basisstation\Basisstation\Libraries\XMCLib\inc\xmc_gpio.h ****   XMC_GPIO_HWCTRL_DISABLED     = 0x0U, /**<  Software control only */
 130:D:\Bachelorarbeit\Dave\Basisstation\Basisstation\Libraries\XMCLib\inc\xmc_gpio.h ****   XMC_GPIO_HWCTRL_PERIPHERAL1  = 0x1U, /**<  HWI0/HWO0 control path can override the software confi
 131:D:\Bachelorarbeit\Dave\Basisstation\Basisstation\Libraries\XMCLib\inc\xmc_gpio.h ****   XMC_GPIO_HWCTRL_PERIPHERAL2  = 0x2U  /**<  HWI1/HWO1 control path can override the software confi
 132:D:\Bachelorarbeit\Dave\Basisstation\Basisstation\Libraries\XMCLib\inc\xmc_gpio.h **** } XMC_GPIO_HWCTRL_t;
 133:D:\Bachelorarbeit\Dave\Basisstation\Basisstation\Libraries\XMCLib\inc\xmc_gpio.h **** 
 134:D:\Bachelorarbeit\Dave\Basisstation\Basisstation\Libraries\XMCLib\inc\xmc_gpio.h **** /**************************************************************************************************
 135:D:\Bachelorarbeit\Dave\Basisstation\Basisstation\Libraries\XMCLib\inc\xmc_gpio.h ****  * DEVICE FAMILY EXTENSIONS
 136:D:\Bachelorarbeit\Dave\Basisstation\Basisstation\Libraries\XMCLib\inc\xmc_gpio.h ****  **************************************************************************************************
 137:D:\Bachelorarbeit\Dave\Basisstation\Basisstation\Libraries\XMCLib\inc\xmc_gpio.h **** 
 138:D:\Bachelorarbeit\Dave\Basisstation\Basisstation\Libraries\XMCLib\inc\xmc_gpio.h ****  #if UC_FAMILY == XMC1
 139:D:\Bachelorarbeit\Dave\Basisstation\Basisstation\Libraries\XMCLib\inc\xmc_gpio.h **** #include "xmc1_gpio.h"
 140:D:\Bachelorarbeit\Dave\Basisstation\Basisstation\Libraries\XMCLib\inc\xmc_gpio.h **** #elif UC_FAMILY == XMC4
 141:D:\Bachelorarbeit\Dave\Basisstation\Basisstation\Libraries\XMCLib\inc\xmc_gpio.h **** #include "xmc4_gpio.h"
 142:D:\Bachelorarbeit\Dave\Basisstation\Basisstation\Libraries\XMCLib\inc\xmc_gpio.h **** #else
 143:D:\Bachelorarbeit\Dave\Basisstation\Basisstation\Libraries\XMCLib\inc\xmc_gpio.h **** #error "xmc_gpio.h: family device not supported"
 144:D:\Bachelorarbeit\Dave\Basisstation\Basisstation\Libraries\XMCLib\inc\xmc_gpio.h **** #endif
 145:D:\Bachelorarbeit\Dave\Basisstation\Basisstation\Libraries\XMCLib\inc\xmc_gpio.h **** 
 146:D:\Bachelorarbeit\Dave\Basisstation\Basisstation\Libraries\XMCLib\inc\xmc_gpio.h **** /**************************************************************************************************
 147:D:\Bachelorarbeit\Dave\Basisstation\Basisstation\Libraries\XMCLib\inc\xmc_gpio.h ****  * API PROTOTYPES
 148:D:\Bachelorarbeit\Dave\Basisstation\Basisstation\Libraries\XMCLib\inc\xmc_gpio.h ****  **************************************************************************************************
 149:D:\Bachelorarbeit\Dave\Basisstation\Basisstation\Libraries\XMCLib\inc\xmc_gpio.h **** 
 150:D:\Bachelorarbeit\Dave\Basisstation\Basisstation\Libraries\XMCLib\inc\xmc_gpio.h **** #ifdef __cplusplus
 151:D:\Bachelorarbeit\Dave\Basisstation\Basisstation\Libraries\XMCLib\inc\xmc_gpio.h **** extern "C" {
 152:D:\Bachelorarbeit\Dave\Basisstation\Basisstation\Libraries\XMCLib\inc\xmc_gpio.h **** #endif
 153:D:\Bachelorarbeit\Dave\Basisstation\Basisstation\Libraries\XMCLib\inc\xmc_gpio.h **** 
 154:D:\Bachelorarbeit\Dave\Basisstation\Basisstation\Libraries\XMCLib\inc\xmc_gpio.h **** 
 155:D:\Bachelorarbeit\Dave\Basisstation\Basisstation\Libraries\XMCLib\inc\xmc_gpio.h **** /**
 156:D:\Bachelorarbeit\Dave\Basisstation\Basisstation\Libraries\XMCLib\inc\xmc_gpio.h ****  * @param  port	  Constant pointer pointing to GPIO port, to access port registers like Pn_OUT,Pn_O
 157:D:\Bachelorarbeit\Dave\Basisstation\Basisstation\Libraries\XMCLib\inc\xmc_gpio.h ****  * @param  pin	  Port pin number.
 158:D:\Bachelorarbeit\Dave\Basisstation\Basisstation\Libraries\XMCLib\inc\xmc_gpio.h ****  * @param  config GPIO configuration data structure. Refer data structure @ref XMC_GPIO_CONFIG_t fo
 159:D:\Bachelorarbeit\Dave\Basisstation\Basisstation\Libraries\XMCLib\inc\xmc_gpio.h ****  *
 160:D:\Bachelorarbeit\Dave\Basisstation\Basisstation\Libraries\XMCLib\inc\xmc_gpio.h ****  * @return None
 161:D:\Bachelorarbeit\Dave\Basisstation\Basisstation\Libraries\XMCLib\inc\xmc_gpio.h ****  *
 162:D:\Bachelorarbeit\Dave\Basisstation\Basisstation\Libraries\XMCLib\inc\xmc_gpio.h ****  * \par<b>Description:</b><br>
 163:D:\Bachelorarbeit\Dave\Basisstation\Basisstation\Libraries\XMCLib\inc\xmc_gpio.h ****  * \if XMC1
 164:D:\Bachelorarbeit\Dave\Basisstation\Basisstation\Libraries\XMCLib\inc\xmc_gpio.h ****  * Initializes input / output mode settings like, pull up / pull down devices,hysteresis, push pull
 165:D:\Bachelorarbeit\Dave\Basisstation\Basisstation\Libraries\XMCLib\inc\xmc_gpio.h ****  * Also configures alternate function outputs and clears hardware port control for a selected \a po
 166:D:\Bachelorarbeit\Dave\Basisstation\Basisstation\Libraries\XMCLib\inc\xmc_gpio.h ****  * \a config provides selected I/O settings. It configures hardware registers Pn_IOCR,Pn_OUT, Pn_OM
 167:D:\Bachelorarbeit\Dave\Basisstation\Basisstation\Libraries\XMCLib\inc\xmc_gpio.h ****  * \endif
 168:D:\Bachelorarbeit\Dave\Basisstation\Basisstation\Libraries\XMCLib\inc\xmc_gpio.h ****  * \if XMC4
 169:D:\Bachelorarbeit\Dave\Basisstation\Basisstation\Libraries\XMCLib\inc\xmc_gpio.h ****  * Initializes input / output mode settings like, pull up / pull down devices,push pull /open drain
 170:D:\Bachelorarbeit\Dave\Basisstation\Basisstation\Libraries\XMCLib\inc\xmc_gpio.h ****  * Also configures alternate function outputs and clears hardware port control for selected \a port
 171:D:\Bachelorarbeit\Dave\Basisstation\Basisstation\Libraries\XMCLib\inc\xmc_gpio.h ****  * It configures hardware registers Pn_IOCR,Pn_OUT,Pn_OMR,Pn_PDISC and Pn_PDR.\n
 172:D:\Bachelorarbeit\Dave\Basisstation\Basisstation\Libraries\XMCLib\inc\xmc_gpio.h ****  * \endif
 173:D:\Bachelorarbeit\Dave\Basisstation\Basisstation\Libraries\XMCLib\inc\xmc_gpio.h ****  *
 174:D:\Bachelorarbeit\Dave\Basisstation\Basisstation\Libraries\XMCLib\inc\xmc_gpio.h ****  * \par<b>Related APIs:</b><BR>
 175:D:\Bachelorarbeit\Dave\Basisstation\Basisstation\Libraries\XMCLib\inc\xmc_gpio.h ****  *  None
 176:D:\Bachelorarbeit\Dave\Basisstation\Basisstation\Libraries\XMCLib\inc\xmc_gpio.h ****  *
 177:D:\Bachelorarbeit\Dave\Basisstation\Basisstation\Libraries\XMCLib\inc\xmc_gpio.h ****  * \par<b>Note:</b><br>
 178:D:\Bachelorarbeit\Dave\Basisstation\Basisstation\Libraries\XMCLib\inc\xmc_gpio.h ****  * This API is called in definition of DAVE_init by code generation and therefore should not be exp
 179:D:\Bachelorarbeit\Dave\Basisstation\Basisstation\Libraries\XMCLib\inc\xmc_gpio.h ****  * for the normal operation. Use other APIs only after DAVE_init is called successfully (returns DA
 180:D:\Bachelorarbeit\Dave\Basisstation\Basisstation\Libraries\XMCLib\inc\xmc_gpio.h ****  *
 181:D:\Bachelorarbeit\Dave\Basisstation\Basisstation\Libraries\XMCLib\inc\xmc_gpio.h ****  *
 182:D:\Bachelorarbeit\Dave\Basisstation\Basisstation\Libraries\XMCLib\inc\xmc_gpio.h ****  */
 183:D:\Bachelorarbeit\Dave\Basisstation\Basisstation\Libraries\XMCLib\inc\xmc_gpio.h **** 
 184:D:\Bachelorarbeit\Dave\Basisstation\Basisstation\Libraries\XMCLib\inc\xmc_gpio.h ****  
 185:D:\Bachelorarbeit\Dave\Basisstation\Basisstation\Libraries\XMCLib\inc\xmc_gpio.h **** void XMC_GPIO_Init(XMC_GPIO_PORT_t *const port, const uint8_t pin, const XMC_GPIO_CONFIG_t *const c
 186:D:\Bachelorarbeit\Dave\Basisstation\Basisstation\Libraries\XMCLib\inc\xmc_gpio.h ****  
 187:D:\Bachelorarbeit\Dave\Basisstation\Basisstation\Libraries\XMCLib\inc\xmc_gpio.h **** /**
 188:D:\Bachelorarbeit\Dave\Basisstation\Basisstation\Libraries\XMCLib\inc\xmc_gpio.h ****  *
 189:D:\Bachelorarbeit\Dave\Basisstation\Basisstation\Libraries\XMCLib\inc\xmc_gpio.h ****  * @param  port	Constant pointer pointing to GPIO port, to access hardware register Pn_IOCR.
 190:D:\Bachelorarbeit\Dave\Basisstation\Basisstation\Libraries\XMCLib\inc\xmc_gpio.h ****  * @param  pin	Port pin number.
 191:D:\Bachelorarbeit\Dave\Basisstation\Basisstation\Libraries\XMCLib\inc\xmc_gpio.h ****  * @param  mode input / output functionality selection. Refer @ref XMC_GPIO_MODE_t for valid values
 192:D:\Bachelorarbeit\Dave\Basisstation\Basisstation\Libraries\XMCLib\inc\xmc_gpio.h ****  *
 193:D:\Bachelorarbeit\Dave\Basisstation\Basisstation\Libraries\XMCLib\inc\xmc_gpio.h ****  * @return None
 194:D:\Bachelorarbeit\Dave\Basisstation\Basisstation\Libraries\XMCLib\inc\xmc_gpio.h ****  *
 195:D:\Bachelorarbeit\Dave\Basisstation\Basisstation\Libraries\XMCLib\inc\xmc_gpio.h ****  * \par<b>Description:</b><br>
 196:D:\Bachelorarbeit\Dave\Basisstation\Basisstation\Libraries\XMCLib\inc\xmc_gpio.h ****  * Sets digital input and output driver functionality and characteristics of a GPIO port pin. It co
 197:D:\Bachelorarbeit\Dave\Basisstation\Basisstation\Libraries\XMCLib\inc\xmc_gpio.h ****  * registers Pn_IOCR. \a mode is initially configured during initialization in XMC_GPIO_Init(). Cal
 198:D:\Bachelorarbeit\Dave\Basisstation\Basisstation\Libraries\XMCLib\inc\xmc_gpio.h ****  * the port direction functionality as needed later in the program.
 199:D:\Bachelorarbeit\Dave\Basisstation\Basisstation\Libraries\XMCLib\inc\xmc_gpio.h ****  *
 200:D:\Bachelorarbeit\Dave\Basisstation\Basisstation\Libraries\XMCLib\inc\xmc_gpio.h ****  * \par<b>Related APIs:</b><BR>
 201:D:\Bachelorarbeit\Dave\Basisstation\Basisstation\Libraries\XMCLib\inc\xmc_gpio.h ****  *  None
 202:D:\Bachelorarbeit\Dave\Basisstation\Basisstation\Libraries\XMCLib\inc\xmc_gpio.h ****  *
 203:D:\Bachelorarbeit\Dave\Basisstation\Basisstation\Libraries\XMCLib\inc\xmc_gpio.h ****  */
 204:D:\Bachelorarbeit\Dave\Basisstation\Basisstation\Libraries\XMCLib\inc\xmc_gpio.h **** 
 205:D:\Bachelorarbeit\Dave\Basisstation\Basisstation\Libraries\XMCLib\inc\xmc_gpio.h **** void XMC_GPIO_SetMode(XMC_GPIO_PORT_t *const port, const uint8_t pin, const XMC_GPIO_MODE_t mode);
 206:D:\Bachelorarbeit\Dave\Basisstation\Basisstation\Libraries\XMCLib\inc\xmc_gpio.h **** 
 207:D:\Bachelorarbeit\Dave\Basisstation\Basisstation\Libraries\XMCLib\inc\xmc_gpio.h **** 
 208:D:\Bachelorarbeit\Dave\Basisstation\Basisstation\Libraries\XMCLib\inc\xmc_gpio.h **** /**
 209:D:\Bachelorarbeit\Dave\Basisstation\Basisstation\Libraries\XMCLib\inc\xmc_gpio.h ****  *
 210:D:\Bachelorarbeit\Dave\Basisstation\Basisstation\Libraries\XMCLib\inc\xmc_gpio.h ****  * @param  port	 Constant pointer pointing to GPIO port, to access hardware register Pn_OMR.
 211:D:\Bachelorarbeit\Dave\Basisstation\Basisstation\Libraries\XMCLib\inc\xmc_gpio.h ****  * @param  pin	 Port pin number.
 212:D:\Bachelorarbeit\Dave\Basisstation\Basisstation\Libraries\XMCLib\inc\xmc_gpio.h ****  * @param  level output level selection. Refer @ref XMC_GPIO_OUTPUT_LEVEL_t for valid values.
 213:D:\Bachelorarbeit\Dave\Basisstation\Basisstation\Libraries\XMCLib\inc\xmc_gpio.h ****  *
 214:D:\Bachelorarbeit\Dave\Basisstation\Basisstation\Libraries\XMCLib\inc\xmc_gpio.h ****  * @return None
 215:D:\Bachelorarbeit\Dave\Basisstation\Basisstation\Libraries\XMCLib\inc\xmc_gpio.h ****  *
 216:D:\Bachelorarbeit\Dave\Basisstation\Basisstation\Libraries\XMCLib\inc\xmc_gpio.h ****  * \par<b>Description:</b><br>
 217:D:\Bachelorarbeit\Dave\Basisstation\Basisstation\Libraries\XMCLib\inc\xmc_gpio.h ****  * Set port pin output level to high or low.It configures hardware registers Pn_OMR.\a level is ini
 218:D:\Bachelorarbeit\Dave\Basisstation\Basisstation\Libraries\XMCLib\inc\xmc_gpio.h ****  * configured during initialization in XMC_GPIO_Init(). Call this API to alter output level as need
 219:D:\Bachelorarbeit\Dave\Basisstation\Basisstation\Libraries\XMCLib\inc\xmc_gpio.h ****  *
 220:D:\Bachelorarbeit\Dave\Basisstation\Basisstation\Libraries\XMCLib\inc\xmc_gpio.h ****  * \par<b>Related APIs:</b><BR>
 221:D:\Bachelorarbeit\Dave\Basisstation\Basisstation\Libraries\XMCLib\inc\xmc_gpio.h ****  *  XMC_GPIO_SetOutputHigh(), XMC_GPIO_SetOutputLow().
 222:D:\Bachelorarbeit\Dave\Basisstation\Basisstation\Libraries\XMCLib\inc\xmc_gpio.h ****  *
 223:D:\Bachelorarbeit\Dave\Basisstation\Basisstation\Libraries\XMCLib\inc\xmc_gpio.h ****  * \par<b>Note:</b><br>
 224:D:\Bachelorarbeit\Dave\Basisstation\Basisstation\Libraries\XMCLib\inc\xmc_gpio.h ****  * Prior to this api, user has to configure port pin to output mode using XMC_GPIO_SetMode().
 225:D:\Bachelorarbeit\Dave\Basisstation\Basisstation\Libraries\XMCLib\inc\xmc_gpio.h ****  *
 226:D:\Bachelorarbeit\Dave\Basisstation\Basisstation\Libraries\XMCLib\inc\xmc_gpio.h ****  */
 227:D:\Bachelorarbeit\Dave\Basisstation\Basisstation\Libraries\XMCLib\inc\xmc_gpio.h **** 
 228:D:\Bachelorarbeit\Dave\Basisstation\Basisstation\Libraries\XMCLib\inc\xmc_gpio.h **** 
 229:D:\Bachelorarbeit\Dave\Basisstation\Basisstation\Libraries\XMCLib\inc\xmc_gpio.h **** __STATIC_INLINE void XMC_GPIO_SetOutputLevel(XMC_GPIO_PORT_t *const port, const uint8_t pin, const 
 230:D:\Bachelorarbeit\Dave\Basisstation\Basisstation\Libraries\XMCLib\inc\xmc_gpio.h **** {
 231:D:\Bachelorarbeit\Dave\Basisstation\Basisstation\Libraries\XMCLib\inc\xmc_gpio.h ****   XMC_ASSERT("XMC_GPIO_SetOutputLevel: Invalid port", XMC_GPIO_CHECK_OUTPUT_PORT(port));
 232:D:\Bachelorarbeit\Dave\Basisstation\Basisstation\Libraries\XMCLib\inc\xmc_gpio.h ****   XMC_ASSERT("XMC_GPIO_SetOutputLevel: Invalid output level", XMC_GPIO_CHECK_OUTPUT_LEVEL(level));
 233:D:\Bachelorarbeit\Dave\Basisstation\Basisstation\Libraries\XMCLib\inc\xmc_gpio.h ****   
 234:D:\Bachelorarbeit\Dave\Basisstation\Basisstation\Libraries\XMCLib\inc\xmc_gpio.h ****   port->OMR = (uint32_t)level << pin;
 235:D:\Bachelorarbeit\Dave\Basisstation\Basisstation\Libraries\XMCLib\inc\xmc_gpio.h **** }
 236:D:\Bachelorarbeit\Dave\Basisstation\Basisstation\Libraries\XMCLib\inc\xmc_gpio.h **** 
 237:D:\Bachelorarbeit\Dave\Basisstation\Basisstation\Libraries\XMCLib\inc\xmc_gpio.h **** 
 238:D:\Bachelorarbeit\Dave\Basisstation\Basisstation\Libraries\XMCLib\inc\xmc_gpio.h **** /**
 239:D:\Bachelorarbeit\Dave\Basisstation\Basisstation\Libraries\XMCLib\inc\xmc_gpio.h ****  * @param  port constant pointer pointing to GPIO port, to access hardware register Pn_OMR.
 240:D:\Bachelorarbeit\Dave\Basisstation\Basisstation\Libraries\XMCLib\inc\xmc_gpio.h ****  * @param  pin	Port pin number.
 241:D:\Bachelorarbeit\Dave\Basisstation\Basisstation\Libraries\XMCLib\inc\xmc_gpio.h ****  *
 242:D:\Bachelorarbeit\Dave\Basisstation\Basisstation\Libraries\XMCLib\inc\xmc_gpio.h ****  * @return None
 243:D:\Bachelorarbeit\Dave\Basisstation\Basisstation\Libraries\XMCLib\inc\xmc_gpio.h ****  *
 244:D:\Bachelorarbeit\Dave\Basisstation\Basisstation\Libraries\XMCLib\inc\xmc_gpio.h ****  * \par<b>Description:</b><br>
 245:D:\Bachelorarbeit\Dave\Basisstation\Basisstation\Libraries\XMCLib\inc\xmc_gpio.h ****  *  Sets port pin output to high. It configures hardware registers Pn_OMR.
 246:D:\Bachelorarbeit\Dave\Basisstation\Basisstation\Libraries\XMCLib\inc\xmc_gpio.h ****  *
 247:D:\Bachelorarbeit\Dave\Basisstation\Basisstation\Libraries\XMCLib\inc\xmc_gpio.h ****  *  \par<b>Related APIs:</b><BR>
 248:D:\Bachelorarbeit\Dave\Basisstation\Basisstation\Libraries\XMCLib\inc\xmc_gpio.h ****  *  XMC_GPIO_SetOutputLow()
 249:D:\Bachelorarbeit\Dave\Basisstation\Basisstation\Libraries\XMCLib\inc\xmc_gpio.h ****  *
 250:D:\Bachelorarbeit\Dave\Basisstation\Basisstation\Libraries\XMCLib\inc\xmc_gpio.h ****  * \par<b>Note:</b><br>
 251:D:\Bachelorarbeit\Dave\Basisstation\Basisstation\Libraries\XMCLib\inc\xmc_gpio.h ****  * Prior to this api, user has to configure port pin to output mode using XMC_GPIO_SetMode().\n
 252:D:\Bachelorarbeit\Dave\Basisstation\Basisstation\Libraries\XMCLib\inc\xmc_gpio.h ****  * Register Pn_OMR is virtual and does not contain any flip-flop. A read action delivers the value 
 253:D:\Bachelorarbeit\Dave\Basisstation\Basisstation\Libraries\XMCLib\inc\xmc_gpio.h ****  *
 254:D:\Bachelorarbeit\Dave\Basisstation\Basisstation\Libraries\XMCLib\inc\xmc_gpio.h ****  */
 255:D:\Bachelorarbeit\Dave\Basisstation\Basisstation\Libraries\XMCLib\inc\xmc_gpio.h **** 
 256:D:\Bachelorarbeit\Dave\Basisstation\Basisstation\Libraries\XMCLib\inc\xmc_gpio.h **** __STATIC_INLINE void XMC_GPIO_SetOutputHigh(XMC_GPIO_PORT_t *const port, const uint8_t pin)
 257:D:\Bachelorarbeit\Dave\Basisstation\Basisstation\Libraries\XMCLib\inc\xmc_gpio.h **** {
  27              	 .loc 1 257 0
  28              	 .cfi_startproc
  29              	 
  30              	 
  31              	 
  32 0000 80B4     	 push {r7}
  33              	.LCFI0:
  34              	 .cfi_def_cfa_offset 4
  35              	 .cfi_offset 7,-4
  36 0002 83B0     	 sub sp,sp,#12
  37              	.LCFI1:
  38              	 .cfi_def_cfa_offset 16
  39 0004 00AF     	 add r7,sp,#0
  40              	.LCFI2:
  41              	 .cfi_def_cfa_register 7
  42 0006 7860     	 str r0,[r7,#4]
  43 0008 0B46     	 mov r3,r1
  44 000a FB70     	 strb r3,[r7,#3]
 258:D:\Bachelorarbeit\Dave\Basisstation\Basisstation\Libraries\XMCLib\inc\xmc_gpio.h ****   XMC_ASSERT("XMC_GPIO_SetOutputHigh: Invalid port", XMC_GPIO_CHECK_OUTPUT_PORT(port));
 259:D:\Bachelorarbeit\Dave\Basisstation\Basisstation\Libraries\XMCLib\inc\xmc_gpio.h **** 
 260:D:\Bachelorarbeit\Dave\Basisstation\Basisstation\Libraries\XMCLib\inc\xmc_gpio.h ****   port->OMR = (uint32_t)0x1U << pin;
  45              	 .loc 1 260 0
  46 000c FB78     	 ldrb r3,[r7,#3]
  47 000e 0122     	 movs r2,#1
  48 0010 9A40     	 lsls r2,r2,r3
  49 0012 7B68     	 ldr r3,[r7,#4]
  50 0014 5A60     	 str r2,[r3,#4]
 261:D:\Bachelorarbeit\Dave\Basisstation\Basisstation\Libraries\XMCLib\inc\xmc_gpio.h **** }
  51              	 .loc 1 261 0
  52 0016 0C37     	 adds r7,r7,#12
  53              	.LCFI3:
  54              	 .cfi_def_cfa_offset 4
  55 0018 BD46     	 mov sp,r7
  56              	.LCFI4:
  57              	 .cfi_def_cfa_register 13
  58              	 
  59 001a 5DF8047B 	 ldr r7,[sp],#4
  60              	.LCFI5:
  61              	 .cfi_restore 7
  62              	 .cfi_def_cfa_offset 0
  63 001e 7047     	 bx lr
  64              	 .cfi_endproc
  65              	.LFE130:
  67              	 .section .text.XMC_GPIO_SetOutputLow,"ax",%progbits
  68              	 .align 2
  69              	 .thumb
  70              	 .thumb_func
  72              	XMC_GPIO_SetOutputLow:
  73              	.LFB131:
 262:D:\Bachelorarbeit\Dave\Basisstation\Basisstation\Libraries\XMCLib\inc\xmc_gpio.h **** 
 263:D:\Bachelorarbeit\Dave\Basisstation\Basisstation\Libraries\XMCLib\inc\xmc_gpio.h **** /**
 264:D:\Bachelorarbeit\Dave\Basisstation\Basisstation\Libraries\XMCLib\inc\xmc_gpio.h ****  *
 265:D:\Bachelorarbeit\Dave\Basisstation\Basisstation\Libraries\XMCLib\inc\xmc_gpio.h ****  * @param  port	constant pointer pointing to GPIO port, to access hardware register Pn_OMR.
 266:D:\Bachelorarbeit\Dave\Basisstation\Basisstation\Libraries\XMCLib\inc\xmc_gpio.h ****  * @param  pin	port pin number.
 267:D:\Bachelorarbeit\Dave\Basisstation\Basisstation\Libraries\XMCLib\inc\xmc_gpio.h ****  *
 268:D:\Bachelorarbeit\Dave\Basisstation\Basisstation\Libraries\XMCLib\inc\xmc_gpio.h ****  * @return  None
 269:D:\Bachelorarbeit\Dave\Basisstation\Basisstation\Libraries\XMCLib\inc\xmc_gpio.h ****  *
 270:D:\Bachelorarbeit\Dave\Basisstation\Basisstation\Libraries\XMCLib\inc\xmc_gpio.h ****  *\par<b>Description:</b><br>
 271:D:\Bachelorarbeit\Dave\Basisstation\Basisstation\Libraries\XMCLib\inc\xmc_gpio.h ****  * Sets port pin output to low. It configures hardware registers Pn_OMR.\n
 272:D:\Bachelorarbeit\Dave\Basisstation\Basisstation\Libraries\XMCLib\inc\xmc_gpio.h ****  *
 273:D:\Bachelorarbeit\Dave\Basisstation\Basisstation\Libraries\XMCLib\inc\xmc_gpio.h ****  * \par<b>Related APIs:</b><BR>>
 274:D:\Bachelorarbeit\Dave\Basisstation\Basisstation\Libraries\XMCLib\inc\xmc_gpio.h ****  * XMC_GPIO_SetOutputHigh()
 275:D:\Bachelorarbeit\Dave\Basisstation\Basisstation\Libraries\XMCLib\inc\xmc_gpio.h ****  *
 276:D:\Bachelorarbeit\Dave\Basisstation\Basisstation\Libraries\XMCLib\inc\xmc_gpio.h ****  *\par<b>Note:</b><br>
 277:D:\Bachelorarbeit\Dave\Basisstation\Basisstation\Libraries\XMCLib\inc\xmc_gpio.h ****  * Prior to this api, user has to configure port pin to output mode using XMC_GPIO_SetMode().
 278:D:\Bachelorarbeit\Dave\Basisstation\Basisstation\Libraries\XMCLib\inc\xmc_gpio.h ****  * Register Pn_OMR is virtual and does not contain any flip-flop. A read action delivers the value 
 279:D:\Bachelorarbeit\Dave\Basisstation\Basisstation\Libraries\XMCLib\inc\xmc_gpio.h ****  *
 280:D:\Bachelorarbeit\Dave\Basisstation\Basisstation\Libraries\XMCLib\inc\xmc_gpio.h ****  */
 281:D:\Bachelorarbeit\Dave\Basisstation\Basisstation\Libraries\XMCLib\inc\xmc_gpio.h **** 
 282:D:\Bachelorarbeit\Dave\Basisstation\Basisstation\Libraries\XMCLib\inc\xmc_gpio.h **** __STATIC_INLINE void XMC_GPIO_SetOutputLow(XMC_GPIO_PORT_t *const port, const uint8_t pin)
 283:D:\Bachelorarbeit\Dave\Basisstation\Basisstation\Libraries\XMCLib\inc\xmc_gpio.h **** {
  74              	 .loc 1 283 0
  75              	 .cfi_startproc
  76              	 
  77              	 
  78              	 
  79 0000 80B4     	 push {r7}
  80              	.LCFI6:
  81              	 .cfi_def_cfa_offset 4
  82              	 .cfi_offset 7,-4
  83 0002 83B0     	 sub sp,sp,#12
  84              	.LCFI7:
  85              	 .cfi_def_cfa_offset 16
  86 0004 00AF     	 add r7,sp,#0
  87              	.LCFI8:
  88              	 .cfi_def_cfa_register 7
  89 0006 7860     	 str r0,[r7,#4]
  90 0008 0B46     	 mov r3,r1
  91 000a FB70     	 strb r3,[r7,#3]
 284:D:\Bachelorarbeit\Dave\Basisstation\Basisstation\Libraries\XMCLib\inc\xmc_gpio.h ****   XMC_ASSERT("XMC_GPIO_SetOutputLow: Invalid port", XMC_GPIO_CHECK_OUTPUT_PORT(port));
 285:D:\Bachelorarbeit\Dave\Basisstation\Basisstation\Libraries\XMCLib\inc\xmc_gpio.h **** 
 286:D:\Bachelorarbeit\Dave\Basisstation\Basisstation\Libraries\XMCLib\inc\xmc_gpio.h ****   port->OMR = 0x10000U << pin;
  92              	 .loc 1 286 0
  93 000c FB78     	 ldrb r3,[r7,#3]
  94 000e 4FF48032 	 mov r2,#65536
  95 0012 9A40     	 lsls r2,r2,r3
  96 0014 7B68     	 ldr r3,[r7,#4]
  97 0016 5A60     	 str r2,[r3,#4]
 287:D:\Bachelorarbeit\Dave\Basisstation\Basisstation\Libraries\XMCLib\inc\xmc_gpio.h **** }
  98              	 .loc 1 287 0
  99 0018 0C37     	 adds r7,r7,#12
 100              	.LCFI9:
 101              	 .cfi_def_cfa_offset 4
 102 001a BD46     	 mov sp,r7
 103              	.LCFI10:
 104              	 .cfi_def_cfa_register 13
 105              	 
 106 001c 5DF8047B 	 ldr r7,[sp],#4
 107              	.LCFI11:
 108              	 .cfi_restore 7
 109              	 .cfi_def_cfa_offset 0
 110 0020 7047     	 bx lr
 111              	 .cfi_endproc
 112              	.LFE131:
 114 0022 00BF     	 .section .text.set_TDA_status,"ax",%progbits
 115              	 .align 2
 116              	 .global set_TDA_status
 117              	 .thumb
 118              	 .thumb_func
 120              	set_TDA_status:
 121              	.LFB234:
 122              	 .file 2 "../TDA.c"
   1:../TDA.c      **** /*
   2:../TDA.c      ****  * TDA.c
   3:../TDA.c      ****  *
   4:../TDA.c      ****  *  Created on: Jun 22, 2016
   5:../TDA.c      ****  *      Author: Christof Pfannenmüller
   6:../TDA.c      ****  */
   7:../TDA.c      **** #include "Header_general.h" //including all Header files
   8:../TDA.c      **** 
   9:../TDA.c      **** 
  10:../TDA.c      **** 
  11:../TDA.c      **** /**
  12:../TDA.c      ****  * sets TDA(s) in give mode
  13:../TDA.c      ****  * Param TDA: 	0 -> all TDAs
  14:../TDA.c      ****  * 				1 -> TDA1
  15:../TDA.c      ****  * 				2 -> TDA2  ...
  16:../TDA.c      ****  * Param status:0 -> Power down mode
  17:../TDA.c      ****  * 				1 -> Sleep mode
  18:../TDA.c      ****  */
  19:../TDA.c      **** void set_TDA_status(uint8_t TDA, uint8_t status){
 123              	 .loc 2 19 0
 124              	 .cfi_startproc
 125              	 
 126              	 
 127 0000 80B5     	 push {r7,lr}
 128              	.LCFI12:
 129              	 .cfi_def_cfa_offset 8
 130              	 .cfi_offset 7,-8
 131              	 .cfi_offset 14,-4
 132 0002 82B0     	 sub sp,sp,#8
 133              	.LCFI13:
 134              	 .cfi_def_cfa_offset 16
 135 0004 00AF     	 add r7,sp,#0
 136              	.LCFI14:
 137              	 .cfi_def_cfa_register 7
 138 0006 0346     	 mov r3,r0
 139 0008 0A46     	 mov r2,r1
 140 000a FB71     	 strb r3,[r7,#7]
 141 000c 1346     	 mov r3,r2
 142 000e BB71     	 strb r3,[r7,#6]
  20:../TDA.c      **** if(status==0){
 143              	 .loc 2 20 0
 144 0010 BB79     	 ldrb r3,[r7,#6]
 145 0012 002B     	 cmp r3,#0
 146 0014 3CD1     	 bne .L4
  21:../TDA.c      **** //set P_ON Pin low; Pins were set as Output in init()
  22:../TDA.c      **** if(TDA==0||TDA==1){ XMC_GPIO_SetOutputLow(XMC_GPIO_PORT0, PIN_P_ON_TDA_1);}
 147              	 .loc 2 22 0
 148 0016 FB79     	 ldrb r3,[r7,#7]
 149 0018 002B     	 cmp r3,#0
 150 001a 02D0     	 beq .L5
 151              	 .loc 2 22 0 is_stmt 0 discriminator 2
 152 001c FB79     	 ldrb r3,[r7,#7]
 153 001e 012B     	 cmp r3,#1
 154 0020 03D1     	 bne .L6
 155              	.L5:
 156              	 .loc 2 22 0 discriminator 3
 157 0022 3C48     	 ldr r0,.L29
 158 0024 0221     	 movs r1,#2
 159 0026 FFF7FEFF 	 bl XMC_GPIO_SetOutputLow
 160              	.L6:
  23:../TDA.c      **** if(TDA==0||TDA==2){ XMC_GPIO_SetOutputLow(XMC_GPIO_PORT1, PIN_P_ON_TDA_2);}
 161              	 .loc 2 23 0 is_stmt 1
 162 002a FB79     	 ldrb r3,[r7,#7]
 163 002c 002B     	 cmp r3,#0
 164 002e 02D0     	 beq .L7
 165              	 .loc 2 23 0 is_stmt 0 discriminator 2
 166 0030 FB79     	 ldrb r3,[r7,#7]
 167 0032 022B     	 cmp r3,#2
 168 0034 03D1     	 bne .L8
 169              	.L7:
 170              	 .loc 2 23 0 discriminator 3
 171 0036 3848     	 ldr r0,.L29+4
 172 0038 0821     	 movs r1,#8
 173 003a FFF7FEFF 	 bl XMC_GPIO_SetOutputLow
 174              	.L8:
  24:../TDA.c      **** if(TDA==0||TDA==3){ XMC_GPIO_SetOutputLow(XMC_GPIO_PORT5, PIN_P_ON_TDA_3);}
 175              	 .loc 2 24 0 is_stmt 1
 176 003e FB79     	 ldrb r3,[r7,#7]
 177 0040 002B     	 cmp r3,#0
 178 0042 02D0     	 beq .L9
 179              	 .loc 2 24 0 is_stmt 0 discriminator 2
 180 0044 FB79     	 ldrb r3,[r7,#7]
 181 0046 032B     	 cmp r3,#3
 182 0048 03D1     	 bne .L10
 183              	.L9:
 184              	 .loc 2 24 0 discriminator 3
 185 004a 3448     	 ldr r0,.L29+8
 186 004c 0521     	 movs r1,#5
 187 004e FFF7FEFF 	 bl XMC_GPIO_SetOutputLow
 188              	.L10:
  25:../TDA.c      **** if(TDA==0||TDA==4){ XMC_GPIO_SetOutputLow(XMC_GPIO_PORT5, PIN_P_ON_TDA_4);}
 189              	 .loc 2 25 0 is_stmt 1
 190 0052 FB79     	 ldrb r3,[r7,#7]
 191 0054 002B     	 cmp r3,#0
 192 0056 02D0     	 beq .L11
 193              	 .loc 2 25 0 is_stmt 0 discriminator 2
 194 0058 FB79     	 ldrb r3,[r7,#7]
 195 005a 042B     	 cmp r3,#4
 196 005c 03D1     	 bne .L12
 197              	.L11:
 198              	 .loc 2 25 0 discriminator 3
 199 005e 2F48     	 ldr r0,.L29+8
 200 0060 0421     	 movs r1,#4
 201 0062 FFF7FEFF 	 bl XMC_GPIO_SetOutputLow
 202              	.L12:
  26:../TDA.c      **** if(TDA==0||TDA==5){ XMC_GPIO_SetOutputLow(XMC_GPIO_PORT3, PIN_P_ON_TDA_5);}
 203              	 .loc 2 26 0 is_stmt 1
 204 0066 FB79     	 ldrb r3,[r7,#7]
 205 0068 002B     	 cmp r3,#0
 206 006a 02D0     	 beq .L13
 207              	 .loc 2 26 0 is_stmt 0 discriminator 2
 208 006c FB79     	 ldrb r3,[r7,#7]
 209 006e 052B     	 cmp r3,#5
 210 0070 03D1     	 bne .L14
 211              	.L13:
 212              	 .loc 2 26 0 discriminator 3
 213 0072 2B48     	 ldr r0,.L29+12
 214 0074 0721     	 movs r1,#7
 215 0076 FFF7FEFF 	 bl XMC_GPIO_SetOutputLow
 216              	.L14:
  27:../TDA.c      **** if(TDA==0||TDA==6){ XMC_GPIO_SetOutputLow(XMC_GPIO_PORT0, PIN_P_ON_TDA_6);}
 217              	 .loc 2 27 0 is_stmt 1
 218 007a FB79     	 ldrb r3,[r7,#7]
 219 007c 002B     	 cmp r3,#0
 220 007e 02D0     	 beq .L15
 221              	 .loc 2 27 0 is_stmt 0 discriminator 2
 222 0080 FB79     	 ldrb r3,[r7,#7]
 223 0082 062B     	 cmp r3,#6
 224 0084 43D1     	 bne .L3
 225              	.L15:
 226              	 .loc 2 27 0 discriminator 3
 227 0086 2348     	 ldr r0,.L29
 228 0088 0921     	 movs r1,#9
 229 008a FFF7FEFF 	 bl XMC_GPIO_SetOutputLow
 230 008e 3EE0     	 b .L3
 231              	.L4:
  28:../TDA.c      **** 
  29:../TDA.c      **** }else if(status==1){
 232              	 .loc 2 29 0 is_stmt 1
 233 0090 BB79     	 ldrb r3,[r7,#6]
 234 0092 012B     	 cmp r3,#1
 235 0094 3BD1     	 bne .L3
  30:../TDA.c      **** //set P_ON Pin high; Pins were set as Output in init()
  31:../TDA.c      **** 	if(TDA==0||TDA==1){ XMC_GPIO_SetOutputHigh(XMC_GPIO_PORT0, PIN_P_ON_TDA_1);}
 236              	 .loc 2 31 0
 237 0096 FB79     	 ldrb r3,[r7,#7]
 238 0098 002B     	 cmp r3,#0
 239 009a 02D0     	 beq .L18
 240              	 .loc 2 31 0 is_stmt 0 discriminator 2
 241 009c FB79     	 ldrb r3,[r7,#7]
 242 009e 012B     	 cmp r3,#1
 243 00a0 03D1     	 bne .L19
 244              	.L18:
 245              	 .loc 2 31 0 discriminator 3
 246 00a2 1C48     	 ldr r0,.L29
 247 00a4 0221     	 movs r1,#2
 248 00a6 FFF7FEFF 	 bl XMC_GPIO_SetOutputHigh
 249              	.L19:
  32:../TDA.c      **** 	if(TDA==0||TDA==2){ XMC_GPIO_SetOutputHigh(XMC_GPIO_PORT1, PIN_P_ON_TDA_2);}
 250              	 .loc 2 32 0 is_stmt 1
 251 00aa FB79     	 ldrb r3,[r7,#7]
 252 00ac 002B     	 cmp r3,#0
 253 00ae 02D0     	 beq .L20
 254              	 .loc 2 32 0 is_stmt 0 discriminator 2
 255 00b0 FB79     	 ldrb r3,[r7,#7]
 256 00b2 022B     	 cmp r3,#2
 257 00b4 03D1     	 bne .L21
 258              	.L20:
 259              	 .loc 2 32 0 discriminator 3
 260 00b6 1848     	 ldr r0,.L29+4
 261 00b8 0821     	 movs r1,#8
 262 00ba FFF7FEFF 	 bl XMC_GPIO_SetOutputHigh
 263              	.L21:
  33:../TDA.c      **** 	if(TDA==0||TDA==3){ XMC_GPIO_SetOutputHigh(XMC_GPIO_PORT5, PIN_P_ON_TDA_3);}
 264              	 .loc 2 33 0 is_stmt 1
 265 00be FB79     	 ldrb r3,[r7,#7]
 266 00c0 002B     	 cmp r3,#0
 267 00c2 02D0     	 beq .L22
 268              	 .loc 2 33 0 is_stmt 0 discriminator 2
 269 00c4 FB79     	 ldrb r3,[r7,#7]
 270 00c6 032B     	 cmp r3,#3
 271 00c8 03D1     	 bne .L23
 272              	.L22:
 273              	 .loc 2 33 0 discriminator 3
 274 00ca 1448     	 ldr r0,.L29+8
 275 00cc 0521     	 movs r1,#5
 276 00ce FFF7FEFF 	 bl XMC_GPIO_SetOutputHigh
 277              	.L23:
  34:../TDA.c      **** 	if(TDA==0||TDA==4){ XMC_GPIO_SetOutputHigh(XMC_GPIO_PORT5, PIN_P_ON_TDA_4);}
 278              	 .loc 2 34 0 is_stmt 1
 279 00d2 FB79     	 ldrb r3,[r7,#7]
 280 00d4 002B     	 cmp r3,#0
 281 00d6 02D0     	 beq .L24
 282              	 .loc 2 34 0 is_stmt 0 discriminator 2
 283 00d8 FB79     	 ldrb r3,[r7,#7]
 284 00da 042B     	 cmp r3,#4
 285 00dc 03D1     	 bne .L25
 286              	.L24:
 287              	 .loc 2 34 0 discriminator 3
 288 00de 0F48     	 ldr r0,.L29+8
 289 00e0 0421     	 movs r1,#4
 290 00e2 FFF7FEFF 	 bl XMC_GPIO_SetOutputHigh
 291              	.L25:
  35:../TDA.c      **** 	if(TDA==0||TDA==5){ XMC_GPIO_SetOutputHigh(XMC_GPIO_PORT3, PIN_P_ON_TDA_5);}
 292              	 .loc 2 35 0 is_stmt 1
 293 00e6 FB79     	 ldrb r3,[r7,#7]
 294 00e8 002B     	 cmp r3,#0
 295 00ea 02D0     	 beq .L26
 296              	 .loc 2 35 0 is_stmt 0 discriminator 2
 297 00ec FB79     	 ldrb r3,[r7,#7]
 298 00ee 052B     	 cmp r3,#5
 299 00f0 03D1     	 bne .L27
 300              	.L26:
 301              	 .loc 2 35 0 discriminator 3
 302 00f2 0B48     	 ldr r0,.L29+12
 303 00f4 0721     	 movs r1,#7
 304 00f6 FFF7FEFF 	 bl XMC_GPIO_SetOutputHigh
 305              	.L27:
  36:../TDA.c      **** 	if(TDA==0||TDA==6){ XMC_GPIO_SetOutputHigh(XMC_GPIO_PORT0, PIN_P_ON_TDA_6);}
 306              	 .loc 2 36 0 is_stmt 1
 307 00fa FB79     	 ldrb r3,[r7,#7]
 308 00fc 002B     	 cmp r3,#0
 309 00fe 02D0     	 beq .L28
 310              	 .loc 2 36 0 is_stmt 0 discriminator 2
 311 0100 FB79     	 ldrb r3,[r7,#7]
 312 0102 062B     	 cmp r3,#6
 313 0104 03D1     	 bne .L3
 314              	.L28:
 315              	 .loc 2 36 0 discriminator 3
 316 0106 0348     	 ldr r0,.L29
 317 0108 0921     	 movs r1,#9
 318 010a FFF7FEFF 	 bl XMC_GPIO_SetOutputHigh
 319              	.L3:
  37:../TDA.c      **** }
  38:../TDA.c      **** 
  39:../TDA.c      **** }
 320              	 .loc 2 39 0 is_stmt 1
 321 010e 0837     	 adds r7,r7,#8
 322              	.LCFI15:
 323              	 .cfi_def_cfa_offset 8
 324 0110 BD46     	 mov sp,r7
 325              	.LCFI16:
 326              	 .cfi_def_cfa_register 13
 327              	 
 328 0112 80BD     	 pop {r7,pc}
 329              	.L30:
 330              	 .align 2
 331              	.L29:
 332 0114 00800248 	 .word 1208123392
 333 0118 00810248 	 .word 1208123648
 334 011c 00850248 	 .word 1208124672
 335 0120 00830248 	 .word 1208124160
 336              	 .cfi_endproc
 337              	.LFE234:
 339              	 .text
 340              	.Letext0:
 341              	 .file 3 "c:\\davev4-64bit\\dave-4.2.6\\eclipse\\arm-gcc-49\\arm-none-eabi\\include\\machine\\_default_types.h"
 342              	 .file 4 "c:\\davev4-64bit\\dave-4.2.6\\eclipse\\arm-gcc-49\\arm-none-eabi\\include\\stdint.h"
 343              	 .file 5 "D:\\Bachelorarbeit\\Dave\\Basisstation\\Basisstation\\Libraries\\XMCLib\\inc/xmc4_gpio.h"
 344              	 .file 6 "D:\\Bachelorarbeit\\Dave\\Basisstation\\Basisstation/Libraries/CMSIS/Include/core_cm4.h"
DEFINED SYMBOLS
                            *ABS*:00000000 TDA.c
    {standard input}:20     .text.XMC_GPIO_SetOutputHigh:00000000 $t
    {standard input}:24     .text.XMC_GPIO_SetOutputHigh:00000000 XMC_GPIO_SetOutputHigh
    {standard input}:68     .text.XMC_GPIO_SetOutputLow:00000000 $t
    {standard input}:72     .text.XMC_GPIO_SetOutputLow:00000000 XMC_GPIO_SetOutputLow
    {standard input}:115    .text.set_TDA_status:00000000 $t
    {standard input}:120    .text.set_TDA_status:00000000 set_TDA_status
    {standard input}:332    .text.set_TDA_status:00000114 $d
                     .debug_frame:00000010 $d

NO UNDEFINED SYMBOLS
